; Function Attrs: nounwind uwtable
define internal noundef i32 @lj_cf_coroutine_running(ptr noundef %0) #2 {
  %2 = tail call i32 @lua_pushthread(ptr noundef %0) #11
  %.not = icmp eq i32 %2, 0
  br i1 %.not, label %7, label %3

3:                                                ; preds = %1
  %4 = getelementptr inbounds nuw i8, ptr %0, i64 40
  %5 = load ptr, ptr %4, align 8, !tbaa !4
  %6 = getelementptr inbounds nuw i8, ptr %5, i64 8
  store ptr %6, ptr %4, align 8, !tbaa !4
  store i64 -1, ptr %5, align 8, !tbaa !14
  br label %7

7:                                                ; preds = %3, %1
  ret i32 1
}